target datalayout = "e-m:e-p270:32:32-p271:32:32-p272:64:64-i64:64-i128:128-f80:128-n8:16:32:64-S128"
target triple = "x86_64-pc-linux-gnu"

%struct.bb_state = type { %struct.bb_config, ptr, ptr, ptr, %union.pthread_mutex_t, i64, i64, ptr, i64, i64, i64, ptr, %union.pthread_cond_t, i8, %union.pthread_mutex_t, i64, i32, i32, i64, i64 }
%struct.bb_config = type { ptr, ptr, ptr, ptr, ptr, ptr, ptr, ptr, i32, ptr, ptr, i64, i32, ptr, i32, i32, i32, i32, ptr, ptr, ptr, ptr, i32 }
%union.pthread_cond_t = type { %struct.__pthread_cond_s }
%struct.__pthread_cond_s = type { %union.__atomic_wide_counter, %union.__atomic_wide_counter, [2 x i32], [2 x i32], i32, i32, [2 x i32] }
%union.__atomic_wide_counter = type { i64 }
%union.pthread_mutex_t = type { %struct.__pthread_mutex_s }
%struct.__pthread_mutex_s = type { i32, i32, i32, i32, i32, i16, i16, %struct.__pthread_internal_list }
%struct.__pthread_internal_list = type { ptr, ptr }
%struct.bb_alloc = type { ptr, ptr, ptr, i32, i32, i8, i64, i64, i32, i32, i32, i32, ptr, ptr, i8, ptr, ptr, ptr, ptr, i64, i64, i16, i64, i64, i32 }
%struct.bb_job = type { ptr, i32, ptr, i32, ptr, i32, i32, ptr, i8, ptr, ptr, i64, ptr, i32, i64, i32, i32, i32, i64, i8, i32 }
%struct.job_record = type { i32, ptr, ptr, ptr, ptr, i16, i32, i32, i32, ptr, i32, ptr, ptr, i16, ptr, double, i64, ptr, ptr, ptr, ptr, ptr, ptr, i32, ptr, i32, i64, i64, i32, i32, ptr, i16, i64, i64, i8, i32, ptr, ptr, ptr, ptr, ptr, ptr, ptr, ptr, i32, ptr, ptr, i32, ptr, i32, ptr, i32, ptr, i32, ptr, ptr, ptr, ptr, ptr, ptr, i32, i16, i64, ptr, ptr, ptr, ptr, %struct.acct_policy_limit_set_t, i16, ptr, ptr, ptr, ptr, ptr, i32, ptr, ptr, ptr, ptr, ptr, i32, i32, ptr, ptr, ptr, i16, ptr, ptr, i8, ptr, ptr, i64, i64, i8, i32, i32, i8, i32, ptr, i32, i64, i32, ptr, ptr, ptr, i8, i16, i64, i32, ptr, ptr, ptr, ptr, ptr, i16, i32, ptr, ptr, ptr, ptr, i32, ptr, i32, i16, i64, ptr, i32, i32, ptr, i64, ptr, ptr, i64, i32, i32, i64, i32, i32, ptr, ptr, ptr, ptr, ptr, ptr, ptr, ptr, ptr, ptr, ptr, ptr, i32, ptr, i16, i16, i16, i16, ptr, i32, i32, i8, i64 }
%struct.acct_policy_limit_set_t = type { i16, i16, ptr }

@.str = private unnamed_addr constant [22 x i8] c"burst_buffer_common.c\00", align 1
@.str.4 = private unnamed_addr constant [3 x i8] c"%u\00", align 1
@__func__.bb_alloc_job_rec = private unnamed_addr constant [17 x i8] c"bb_alloc_job_rec\00", align 1

; Function Attrs: nounwind uwtable
define dso_local ptr @bb_alloc_job_rec(ptr noundef %0, ptr noundef %1, ptr noundef %2) #0 {
  %4 = alloca ptr, align 8
  %5 = alloca ptr, align 8
  %6 = alloca ptr, align 8
  %7 = alloca ptr, align 8
  %8 = alloca i32, align 4
  store ptr %0, ptr %4, align 8
  store ptr %1, ptr %5, align 8
  store ptr %2, ptr %6, align 8
  call void @llvm.lifetime.start.p0(i64 8, ptr %7) #9
  store ptr null, ptr %7, align 8
  call void @llvm.lifetime.start.p0(i64 4, ptr %8) #9
  %9 = call i64 @time(ptr noundef null) #9
  %10 = load ptr, ptr %4, align 8
  %11 = getelementptr inbounds nuw %struct.bb_state, ptr %10, i32 0, i32 9
  store i64 %9, ptr %11, align 8
  %12 = call ptr @slurm_xcalloc(i64 noundef 1, i64 noundef 176, i1 noundef zeroext true, i1 noundef zeroext false, ptr noundef @.str, i32 noundef 1160, ptr noundef @__func__.bb_alloc_job_rec)
  store ptr %12, ptr %7, align 8
  %13 = load ptr, ptr %6, align 8
  %14 = getelementptr inbounds nuw %struct.bb_job, ptr %13, i32 0, i32 0
  %15 = load ptr, ptr %14, align 8
  %16 = call ptr @xstrdup(ptr noundef %15)
  %17 = load ptr, ptr %7, align 8
  %18 = getelementptr inbounds nuw %struct.bb_alloc, ptr %17, i32 0, i32 0
  store ptr %16, ptr %18, align 8
  %19 = load ptr, ptr %5, align 8
  %20 = getelementptr inbounds nuw %struct.job_record, ptr %19, i32 0, i32 7
  %21 = load i32, ptr %20, align 8
  %22 = load ptr, ptr %7, align 8
  %23 = getelementptr inbounds nuw %struct.bb_alloc, ptr %22, i32 0, i32 3
  store i32 %21, ptr %23, align 8
  %24 = load ptr, ptr %5, align 8
  %25 = getelementptr inbounds nuw %struct.job_record, ptr %24, i32 0, i32 8
  %26 = load i32, ptr %25, align 4
  %27 = load ptr, ptr %7, align 8
  %28 = getelementptr inbounds nuw %struct.bb_alloc, ptr %27, i32 0, i32 4
  store i32 %26, ptr %28, align 4
  %29 = load ptr, ptr %5, align 8
  %30 = getelementptr inbounds nuw %struct.job_record, ptr %29, i32 0, i32 11
  %31 = load ptr, ptr %30, align 8
  %32 = load ptr, ptr %7, align 8
  %33 = getelementptr inbounds nuw %struct.bb_alloc, ptr %32, i32 0, i32 1
  store ptr %31, ptr %33, align 8
  %34 = load ptr, ptr %5, align 8
  %35 = getelementptr inbounds nuw %struct.job_record, ptr %34, i32 0, i32 53
  %36 = load i32, ptr %35, align 8
  %37 = load ptr, ptr %7, align 8
  %38 = getelementptr inbounds nuw %struct.bb_alloc, ptr %37, i32 0, i32 10
  store i32 %36, ptr %38, align 8
  %39 = load ptr, ptr %7, align 8
  %40 = getelementptr inbounds nuw %struct.bb_alloc, ptr %39, i32 0, i32 11
  store i32 -559074232, ptr %40, align 4
  %41 = load ptr, ptr %5, align 8
  %42 = getelementptr inbounds nuw %struct.job_record, ptr %41, i32 0, i32 150
  %43 = load i32, ptr %42, align 8
  %44 = urem i32 %43, 100
  store i32 %44, ptr %8, align 4
  %45 = load ptr, ptr %7, align 8
  %46 = getelementptr inbounds nuw %struct.bb_alloc, ptr %45, i32 0, i32 12
  %47 = load ptr, ptr %5, align 8
  %48 = getelementptr inbounds nuw %struct.job_record, ptr %47, i32 0, i32 53
  %49 = load i32, ptr %48, align 8
  call void (ptr, ptr, ...) @_xstrfmtcat(ptr noundef %46, ptr noundef @.str.4, i32 noundef %49)
  %50 = load ptr, ptr %4, align 8
  %51 = getelementptr inbounds nuw %struct.bb_state, ptr %50, i32 0, i32 1
  %52 = load ptr, ptr %51, align 8
  %53 = load i32, ptr %8, align 4
  %54 = sext i32 %53 to i64
  %55 = getelementptr inbounds ptr, ptr %52, i64 %54
  %56 = load ptr, ptr %55, align 8
  %57 = load ptr, ptr %7, align 8
  %58 = getelementptr inbounds nuw %struct.bb_alloc, ptr %57, i32 0, i32 13
  store ptr %56, ptr %58, align 8
  %59 = load ptr, ptr %6, align 8
  %60 = getelementptr inbounds nuw %struct.bb_job, ptr %59, i32 0, i32 10
  %61 = load ptr, ptr %60, align 8
  %62 = call ptr @xstrdup(ptr noundef %61)
  %63 = load ptr, ptr %7, align 8
  %64 = getelementptr inbounds nuw %struct.bb_alloc, ptr %63, i32 0, i32 15
  store ptr %62, ptr %64, align 8
  %65 = load ptr, ptr %6, align 8
  %66 = getelementptr inbounds nuw %struct.bb_job, ptr %65, i32 0, i32 4
  %67 = load ptr, ptr %66, align 8
  %68 = call ptr @xstrdup(ptr noundef %67)
  %69 = load ptr, ptr %7, align 8
  %70 = getelementptr inbounds nuw %struct.bb_alloc, ptr %69, i32 0, i32 16
  store ptr %68, ptr %70, align 8
  %71 = load ptr, ptr %6, align 8
  %72 = getelementptr inbounds nuw %struct.bb_job, ptr %71, i32 0, i32 12
  %73 = load ptr, ptr %72, align 8
  %74 = call ptr @xstrdup(ptr noundef %73)
  %75 = load ptr, ptr %7, align 8
  %76 = getelementptr inbounds nuw %struct.bb_alloc, ptr %75, i32 0, i32 17
  store ptr %74, ptr %76, align 8
  %77 = load ptr, ptr %7, align 8
  %78 = load ptr, ptr %4, align 8
  %79 = getelementptr inbounds nuw %struct.bb_state, ptr %78, i32 0, i32 1
  %80 = load ptr, ptr %79, align 8
  %81 = load i32, ptr %8, align 4
  %82 = sext i32 %81 to i64
  %83 = getelementptr inbounds ptr, ptr %80, i64 %82
  store ptr %77, ptr %83, align 8
  %84 = load ptr, ptr %6, align 8
  %85 = getelementptr inbounds nuw %struct.bb_job, ptr %84, i32 0, i32 18
  %86 = load i64, ptr %85, align 8
  %87 = load ptr, ptr %7, align 8
  %88 = getelementptr inbounds nuw %struct.bb_alloc, ptr %87, i32 0, i32 20
  store i64 %86, ptr %88, align 8
  %89 = load ptr, ptr %7, align 8
  %90 = getelementptr inbounds nuw %struct.bb_alloc, ptr %89, i32 0, i32 21
  store i16 2, ptr %90, align 8
  %91 = call i64 @time(ptr noundef null) #9
  %92 = load ptr, ptr %7, align 8
  %93 = getelementptr inbounds nuw %struct.bb_alloc, ptr %92, i32 0, i32 22
  store i64 %91, ptr %93, align 8
  %94 = call i64 @time(ptr noundef null) #9
  %95 = load ptr, ptr %7, align 8
  %96 = getelementptr inbounds nuw %struct.bb_alloc, ptr %95, i32 0, i32 19
  store i64 %94, ptr %96, align 8
  %97 = load ptr, ptr %5, align 8
  %98 = getelementptr inbounds nuw %struct.job_record, ptr %97, i32 0, i32 150
  %99 = load i32, ptr %98, align 8
  %100 = load ptr, ptr %7, align 8
  %101 = getelementptr inbounds nuw %struct.bb_alloc, ptr %100, i32 0, i32 24
  store i32 %99, ptr %101, align 8
  %102 = load ptr, ptr %5, align 8
  %103 = getelementptr inbounds nuw %struct.job_record, ptr %102, i32 0, i32 47
  %104 = load i32, ptr %103, align 8
  %105 = load ptr, ptr %7, align 8
  %106 = getelementptr inbounds nuw %struct.bb_alloc, ptr %105, i32 0, i32 8
  store i32 %104, ptr %106, align 8
  %107 = load ptr, ptr %7, align 8
  call void @llvm.lifetime.end.p0(i64 4, ptr %8) #9
  call void @llvm.lifetime.end.p0(i64 8, ptr %7) #9
  ret ptr %107
}