; Function Attrs: nounwind uwtable
define dso_local ptr @bb_alloc_job_rec(ptr noundef captures(none) initializes((264, 272)) %0, ptr noundef readonly captures(none) %1, ptr noundef readonly captures(none) %2) local_unnamed_addr #0 {
  %4 = tail call i64 @time(ptr noundef null) #17
  %5 = getelementptr inbounds nuw i8, ptr %0, i64 264
  store i64 %4, ptr %5, align 8
  %6 = tail call ptr @slurm_xcalloc(i64 noundef 1, i64 noundef 176, i1 noundef zeroext true, i1 noundef zeroext false, ptr noundef nonnull @.str, i32 noundef 1160, ptr noundef nonnull @__func__.bb_alloc_job_rec) #17
  %7 = load ptr, ptr %2, align 8
  %8 = tail call ptr @xstrdup(ptr noundef %7) #17
  store ptr %8, ptr %6, align 8
  %9 = getelementptr inbounds nuw i8, ptr %1, i64 48
  %10 = load i32, ptr %9, align 8
  %11 = getelementptr inbounds nuw i8, ptr %6, i64 24
  store i32 %10, ptr %11, align 8
  %12 = getelementptr inbounds nuw i8, ptr %1, i64 52
  %13 = load i32, ptr %12, align 4
  %14 = getelementptr inbounds nuw i8, ptr %6, i64 28
  store i32 %13, ptr %14, align 4
  %15 = getelementptr inbounds nuw i8, ptr %1, i64 72
  %16 = load ptr, ptr %15, align 8
  %17 = getelementptr inbounds nuw i8, ptr %6, i64 8
  store ptr %16, ptr %17, align 8
  %18 = getelementptr inbounds nuw i8, ptr %1, i64 392
  %19 = load i32, ptr %18, align 8
  %20 = getelementptr inbounds nuw i8, ptr %6, i64 64
  store i32 %19, ptr %20, align 8
  %21 = getelementptr inbounds nuw i8, ptr %6, i64 68
  store i32 -559074232, ptr %21, align 4
  %22 = getelementptr inbounds nuw i8, ptr %1, i64 1096
  %23 = load i32, ptr %22, align 8
  %24 = urem i32 %23, 100
  %25 = getelementptr inbounds nuw i8, ptr %6, i64 72
  %26 = load i32, ptr %18, align 8
  tail call void (ptr, ptr, ...) @_xstrfmtcat(ptr noundef nonnull %25, ptr noundef nonnull @.str.4, i32 noundef %26) #17
  %27 = getelementptr inbounds nuw i8, ptr %0, i64 168
  %28 = load ptr, ptr %27, align 8
  %29 = zext nneg i32 %24 to i64
  %30 = getelementptr inbounds nuw ptr, ptr %28, i64 %29
  %31 = load ptr, ptr %30, align 8
  %32 = getelementptr inbounds nuw i8, ptr %6, i64 80
  store ptr %31, ptr %32, align 8
  %33 = getelementptr inbounds nuw i8, ptr %2, i64 72
  %34 = load ptr, ptr %33, align 8
  %35 = tail call ptr @xstrdup(ptr noundef %34) #17
  %36 = getelementptr inbounds nuw i8, ptr %6, i64 96
  store ptr %35, ptr %36, align 8
  %37 = getelementptr inbounds nuw i8, ptr %2, i64 32
  %38 = load ptr, ptr %37, align 8
  %39 = tail call ptr @xstrdup(ptr noundef %38) #17
  %40 = getelementptr inbounds nuw i8, ptr %6, i64 104
  store ptr %39, ptr %40, align 8
  %41 = getelementptr inbounds nuw i8, ptr %2, i64 88
  %42 = load ptr, ptr %41, align 8
  %43 = tail call ptr @xstrdup(ptr noundef %42) #17
  %44 = getelementptr inbounds nuw i8, ptr %6, i64 112
  store ptr %43, ptr %44, align 8
  %45 = load ptr, ptr %27, align 8
  %46 = getelementptr inbounds nuw ptr, ptr %45, i64 %29
  store ptr %6, ptr %46, align 8
  %47 = getelementptr inbounds nuw i8, ptr %2, i64 128
  %48 = load i64, ptr %47, align 8
  %49 = getelementptr inbounds nuw i8, ptr %6, i64 136
  store i64 %48, ptr %49, align 8
  %50 = getelementptr inbounds nuw i8, ptr %6, i64 144
  store i16 2, ptr %50, align 8
  %51 = tail call i64 @time(ptr noundef null) #17
  %52 = getelementptr inbounds nuw i8, ptr %6, i64 152
  store i64 %51, ptr %52, align 8
  %53 = tail call i64 @time(ptr noundef null) #17
  %54 = getelementptr inbounds nuw i8, ptr %6, i64 128
  store i64 %53, ptr %54, align 8
  %55 = load i32, ptr %22, align 8
  %56 = getelementptr inbounds nuw i8, ptr %6, i64 168
  store i32 %55, ptr %56, align 8
  %57 = getelementptr inbounds nuw i8, ptr %1, i64 344
  %58 = load i32, ptr %57, align 8
  %59 = getelementptr inbounds nuw i8, ptr %6, i64 56
  store i32 %58, ptr %59, align 8
  ret ptr %6
}